Certificate:
    Data:
        Version: 3 (0x2)
        Serial Number: 6 (0x6)
        Signature Algorithm: sha1WithRSAEncryption
        Issuer: C=zh, ST=jiangxi, L=nanchang, O=wisvalley, OU=wisvalleyit, CN=jiangshaoxia/emailAddress=jiangxiacdyjs@163.com
        Validity
            Not Before: Jan 26 03:26:39 2015 GMT
            Not After : Jan 26 03:26:39 2016 GMT
        Subject: C=zh, ST=jiangxi, O=wisvalley, OU=wisvalleyit, CN=jiangshaoxia/emailAddress=jiangxiacdyjs@163.com
        Subject Public Key Info:
            Public Key Algorithm: rsaEncryption
            RSA Public Key: (1024 bit)
                Modulus (1024 bit):
                    00:db:9b:14:ea:11:f6:7c:a6:db:d6:5f:8b:eb:46:
                    c9:c4:84:c6:ae:70:f7:02:af:08:26:24:f8:26:d5:
                    aa:e6:dc:2f:49:5c:23:76:1f:a0:24:f8:24:25:0f:
                    e2:e9:f9:7a:6f:ed:21:66:a3:55:d4:19:d3:2a:5d:
                    d9:4e:0c:bf:d2:c7:95:c6:1f:fe:61:5e:03:d1:3c:
                    5a:0f:e4:88:36:60:ff:d2:13:01:5a:97:aa:a2:81:
                    35:58:4b:e5:cf:39:1d:83:b5:e6:2f:94:c8:28:af:
                    18:40:2c:ca:96:82:84:97:40:0c:dd:d5:b6:3e:20:
                    63:02:96:ed:10:79:22:03:7f
                Exponent: 65537 (0x10001)
        X509v3 extensions:
            X509v3 Basic Constraints: 
                CA:FALSE
            Netscape Comment: 
                OpenSSL Generated Certificate
            X509v3 Subject Key Identifier: 
                2D:E3:C1:95:ED:DE:82:8A:25:07:B4:35:19:08:36:EF:02:34:F5:1D
            X509v3 Authority Key Identifier: 
                keyid:AB:B4:84:88:5E:59:65:29:8F:4A:E1:4C:A1:2C:F7:9C:41:21:43:95

    Signature Algorithm: sha1WithRSAEncryption
        21:3a:05:3c:75:9a:7e:17:1d:b8:90:d8:43:e7:73:bb:a1:62:
        4d:45:1a:84:ad:78:b1:26:1c:41:dd:c8:66:03:16:11:65:d8:
        fc:b4:7f:ad:d1:19:0b:70:3b:dc:11:3c:18:6a:a3:ca:8d:17:
        5b:68:29:2a:ab:90:bd:82:9e:80:8c:cc:fd:45:d3:72:2f:17:
        5f:17:8f:e4:89:b5:59:d2:05:87:7c:54:7c:4a:38:3e:9a:44:
        0b:d6:a6:ed:cd:a2:4e:2f:e5:c9:09:c0:30:bc:83:c0:0d:bb:
        8e:f2:24:5b:47:4e:52:38:34:ea:60:81:99:bf:bd:55:15:4a:
        ce:c8
-----BEGIN CERTIFICATE-----
MIIDEjCCAnugAwIBAgIBBjANBgkqhkiG9w0BAQUFADCBmTELMAkGA1UEBhMCemgx
EDAOBgNVBAgTB2ppYW5neGkxETAPBgNVBAcTCG5hbmNoYW5nMRIwEAYDVQQKEwl3
aXN2YWxsZXkxFDASBgNVBAsTC3dpc3ZhbGxleWl0MRUwEwYDVQQDEwxqaWFuZ3No
YW94aWExJDAiBgkqhkiG9w0BCQEWFWppYW5neGlhY2R5anNAMTYzLmNvbTAeFw0x
NTAxMjYwMzI2MzlaFw0xNjAxMjYwMzI2MzlaMIGGMQswCQYDVQQGEwJ6aDEQMA4G
A1UECBMHamlhbmd4aTESMBAGA1UEChMJd2lzdmFsbGV5MRQwEgYDVQQLEwt3aXN2
YWxsZXlpdDEVMBMGA1UEAxMMamlhbmdzaGFveGlhMSQwIgYJKoZIhvcNAQkBFhVq
aWFuZ3hpYWNkeWpzQDE2My5jb20wgZ8wDQYJKoZIhvcNAQEBBQADgY0AMIGJAoGB
ANubFOoR9nym29Zfi+tGycSExq5w9wKvCCYk+CbVqubcL0lcI3YfoCT4JCUP4un5
em/tIWajVdQZ0ypd2U4Mv9LHlcYf/mFeA9E8Wg/kiDZg/9ITAVqXqqKBNVhL5c85
HYO15i+UyCivGEAsypaChJdADN3Vtj4gYwKW7RB5IgN/AgMBAAGjezB5MAkGA1Ud
EwQCMAAwLAYJYIZIAYb4QgENBB8WHU9wZW5TU0wgR2VuZXJhdGVkIENlcnRpZmlj
YXRlMB0GA1UdDgQWBBQt48GV7d6CiiUHtDUZCDbvAjT1HTAfBgNVHSMEGDAWgBSr
tISIXlllKY9K4UyhLPecQSFDlTANBgkqhkiG9w0BAQUFAAOBgQAhOgU8dZp+Fx24
kNhD53O7oWJNRRqErXixJhxB3chmAxYRZdj8tH+t0RkLcDvcETwYaqPKjRdbaCkq
q5C9gp6AjMz9RdNyLxdfF4/kibVZ0gWHfFR8Sjg+mkQL1qbtzaJOL+XJCcAwvIPA
DbuO8iRbR05SODTqYIGZv71VFUrOyA==
-----END CERTIFICATE-----
